; Function Attrs: mustprogress nofree norecurse nosync nounwind willreturn memory(none) uwtable
define dso_local noundef range(i32 0, 65536) i32 @_ZN4llvm5RISCV14getRVVMCOpcodeEj(i32 noundef %0) local_unnamed_addr #4 {
  %2 = add i32 %0, -11864
  %or.cond.i = icmp ult i32 %2, -11437
  br i1 %or.cond.i, label %_ZN4llvm18RISCVVPseudosTable13getPseudoInfoEj.exit.thread, label %_ZSt7advanceIPKN4llvm18RISCVVPseudosTable10PseudoInfoElEvRT_T0_.exit.i.i.i

_ZSt7advanceIPKN4llvm18RISCVVPseudosTable10PseudoInfoElEvRT_T0_.exit.i.i.i: ; preds = %1, %_ZSt7advanceIPKN4llvm18RISCVVPseudosTable10PseudoInfoElEvRT_T0_.exit.i.i.i
  %.05.i.i.i = phi ptr [ %.1.i.i.i, %_ZSt7advanceIPKN4llvm18RISCVVPseudosTable10PseudoInfoElEvRT_T0_.exit.i.i.i ], [ @_ZN4llvm18RISCVVPseudosTableL18RISCVVPseudosTableE, %1 ]
  %.0114.i.i.i = phi i64 [ %.112.i.i.i, %_ZSt7advanceIPKN4llvm18RISCVVPseudosTable10PseudoInfoElEvRT_T0_.exit.i.i.i ], [ 11339, %1 ]
  %3 = lshr i64 %.0114.i.i.i, 1
  %4 = getelementptr inbounds %"struct.llvm::RISCVVPseudosTable::PseudoInfo", ptr %.05.i.i.i, i64 %3
  %.val.i.i.i = load i16, ptr %4, align 2
  %5 = zext i16 %.val.i.i.i to i32
  %6 = icmp ugt i32 %0, %5
  %7 = getelementptr inbounds i8, ptr %4, i64 4
  %8 = xor i64 %3, -1
  %9 = add nsw i64 %.0114.i.i.i, %8
  %.112.i.i.i = select i1 %6, i64 %9, i64 %3
  %.1.i.i.i = select i1 %6, ptr %7, ptr %.05.i.i.i
  %10 = icmp sgt i64 %.112.i.i.i, 0
  br i1 %10, label %_ZSt7advanceIPKN4llvm18RISCVVPseudosTable10PseudoInfoElEvRT_T0_.exit.i.i.i, label %_ZSt11lower_boundIPKN4llvm18RISCVVPseudosTable10PseudoInfoEZNS1_13getPseudoInfoEjE7KeyTypeZNS1_13getPseudoInfoEjE4CompET_S7_S7_RKT0_T1_.exit.i, !llvm.loop !4

_ZSt11lower_boundIPKN4llvm18RISCVVPseudosTable10PseudoInfoEZNS1_13getPseudoInfoEjE7KeyTypeZNS1_13getPseudoInfoEjE4CompET_S7_S7_RKT0_T1_.exit.i: ; preds = %_ZSt7advanceIPKN4llvm18RISCVVPseudosTable10PseudoInfoElEvRT_T0_.exit.i.i.i
  %11 = icmp eq ptr %.1.i.i.i, getelementptr inbounds (i8, ptr @_ZN4llvm18RISCVVPseudosTableL18RISCVVPseudosTableE, i64 45356)
  br i1 %11, label %_ZN4llvm18RISCVVPseudosTable13getPseudoInfoEj.exit.thread, label %12

12:                                               ; preds = %_ZSt11lower_boundIPKN4llvm18RISCVVPseudosTable10PseudoInfoEZNS1_13getPseudoInfoEjE7KeyTypeZNS1_13getPseudoInfoEjE4CompET_S7_S7_RKT0_T1_.exit.i
  %13 = load i16, ptr %.1.i.i.i, align 2
  %14 = zext i16 %13 to i32
  %.not.i.not = icmp eq i32 %0, %14
  br i1 %.not.i.not, label %15, label %_ZN4llvm18RISCVVPseudosTable13getPseudoInfoEj.exit.thread

15:                                               ; preds = %12
  %16 = getelementptr inbounds nuw i8, ptr %.1.i.i.i, i64 2
  %17 = load i16, ptr %16, align 2
  %18 = zext i16 %17 to i32
  br label %_ZN4llvm18RISCVVPseudosTable13getPseudoInfoEj.exit.thread

_ZN4llvm18RISCVVPseudosTable13getPseudoInfoEj.exit.thread: ; preds = %12, %_ZSt11lower_boundIPKN4llvm18RISCVVPseudosTable10PseudoInfoEZNS1_13getPseudoInfoEjE7KeyTypeZNS1_13getPseudoInfoEjE4CompET_S7_S7_RKT0_T1_.exit.i, %1, %15
  %.0 = phi i32 [ %18, %15 ], [ 0, %1 ], [ 0, %_ZSt11lower_boundIPKN4llvm18RISCVVPseudosTable10PseudoInfoEZNS1_13getPseudoInfoEjE7KeyTypeZNS1_13getPseudoInfoEjE4CompET_S7_S7_RKT0_T1_.exit.i ], [ 0, %12 ]
  ret i32 %.0
}